target datalayout = "e-m:e-p270:32:32-p271:32:32-p272:64:64-i64:64-i128:128-f80:128-n8:16:32:64-S128"
target triple = "x86_64-pc-linux-gnu"

%"class.LIEF::MachO::Relocation" = type { %"class.LIEF::Relocation.base", ptr, i8, i32, ptr, ptr }
%"class.LIEF::Relocation.base" = type <{ %"class.LIEF::Object", i64, i8 }>
%"class.LIEF::Object" = type { ptr }
%"class.LIEF::Relocation" = type <{ %"class.LIEF::Object", i64, i8, [7 x i8] }>

@_ZTVN4LIEF10RelocationE = external unnamed_addr constant { [15 x ptr] }, align 8

; Function Attrs: mustprogress nounwind uwtable
define linkonce_odr hidden void @_ZN4LIEF10RelocationC2ERKS0_(ptr noundef nonnull align 8 dereferenceable(17) %0, ptr noundef nonnull align 8 dereferenceable(17) %1) unnamed_addr #0 comdat align 2 {
  %3 = alloca ptr, align 8
  %4 = alloca ptr, align 8
  store ptr %0, ptr %3, align 8, !tbaa !23
  store ptr %1, ptr %4, align 8, !tbaa !23
  %5 = load ptr, ptr %3, align 8
  %6 = load ptr, ptr %4, align 8, !tbaa !23
  call void @_ZN4LIEF6ObjectC2ERKS0_(ptr noundef nonnull align 8 dereferenceable(8) %5, ptr noundef nonnull align 8 dereferenceable(8) %6)
  store ptr getelementptr inbounds inrange(-16, 104) ({ [15 x ptr] }, ptr @_ZTVN4LIEF10RelocationE, i32 0, i32 0, i32 2), ptr %5, align 8, !tbaa !8
  %7 = getelementptr inbounds nuw %"class.LIEF::Relocation", ptr %5, i32 0, i32 1
  %8 = load ptr, ptr %4, align 8
  %9 = getelementptr inbounds nuw %"class.LIEF::Relocation", ptr %8, i32 0, i32 1
  call void @llvm.memcpy.p0.p0.i64(ptr align 8 %7, ptr align 8 %9, i64 9, i1 false)
  ret void
}

; Function Attrs: mustprogress nounwind uwtable
define void @_ZN4LIEF5MachO10RelocationC2ERKS1_(ptr noundef nonnull align 8 dereferenceable(56) %0, ptr noundef nonnull align 8 dereferenceable(56) %1) unnamed_addr #0 align 2 {
  %3 = alloca ptr, align 8
  %4 = alloca ptr, align 8
  store ptr %0, ptr %3, align 8, !tbaa !3
  store ptr %1, ptr %4, align 8, !tbaa !3
  %5 = load ptr, ptr %3, align 8
  %6 = load ptr, ptr %4, align 8, !tbaa !3
  call void @_ZN4LIEF10RelocationC2ERKS0_(ptr noundef nonnull align 8 dereferenceable(17) %5, ptr noundef nonnull align 8 dereferenceable(17) %6)
  store ptr getelementptr inbounds inrange(-16, 160) ({ [22 x ptr] }, ptr @_ZTVN4LIEF5MachO10RelocationE, i32 0, i32 0, i32 2), ptr %5, align 8, !tbaa !8
  %7 = getelementptr inbounds nuw %"class.LIEF::MachO::Relocation", ptr %5, i32 0, i32 1
  store ptr null, ptr %7, align 8, !tbaa !10
  %8 = getelementptr inbounds nuw %"class.LIEF::MachO::Relocation", ptr %5, i32 0, i32 2
  %9 = load ptr, ptr %4, align 8, !tbaa !3
  %10 = getelementptr inbounds nuw %"class.LIEF::MachO::Relocation", ptr %9, i32 0, i32 2
  %11 = load i8, ptr %10, align 8, !tbaa !19
  store i8 %11, ptr %8, align 8, !tbaa !19
  %12 = getelementptr inbounds nuw %"class.LIEF::MachO::Relocation", ptr %5, i32 0, i32 3
  %13 = load ptr, ptr %4, align 8, !tbaa !3
  %14 = getelementptr inbounds nuw %"class.LIEF::MachO::Relocation", ptr %13, i32 0, i32 3
  %15 = load i32, ptr %14, align 4, !tbaa !20
  store i32 %15, ptr %12, align 4, !tbaa !20
  %16 = getelementptr inbounds nuw %"class.LIEF::MachO::Relocation", ptr %5, i32 0, i32 4
  store ptr null, ptr %16, align 8, !tbaa !21
  %17 = getelementptr inbounds nuw %"class.LIEF::MachO::Relocation", ptr %5, i32 0, i32 5
  store ptr null, ptr %17, align 8, !tbaa !22
  ret void
}