; Function Attrs: mustprogress nounwind uwtable
define void @_ZN4LIEF5MachO10RelocationC2ERKS1_(ptr noundef nonnull align 8 dereferenceable(56) %0, ptr noundef nonnull align 8 dereferenceable(56) %1) unnamed_addr #0 align 2 {
  tail call void @_ZN4LIEF6ObjectC2ERKS0_(ptr noundef nonnull align 8 dereferenceable(17) %0, ptr noundef nonnull align 8 dereferenceable(17) %1) #25
  store ptr getelementptr inbounds nuw inrange(-16, 104) (i8, ptr @_ZTVN4LIEF10RelocationE, i64 16), ptr %0, align 8, !tbaa !3
  %3 = getelementptr inbounds nuw i8, ptr %0, i64 8
  %4 = getelementptr inbounds nuw i8, ptr %1, i64 8
  tail call void @llvm.memcpy.p0.p0.i64(ptr noundef nonnull align 8 dereferenceable(9) %3, ptr noundef nonnull align 8 dereferenceable(9) %4, i64 9, i1 false)
  store ptr getelementptr inbounds nuw inrange(-16, 160) (i8, ptr @_ZTVN4LIEF5MachO10RelocationE, i64 16), ptr %0, align 8, !tbaa !3
  %5 = getelementptr inbounds nuw i8, ptr %0, i64 24
  store ptr null, ptr %5, align 8, !tbaa !6
  %6 = getelementptr inbounds nuw i8, ptr %0, i64 32
  %7 = getelementptr inbounds nuw i8, ptr %1, i64 32
  %8 = load i8, ptr %7, align 8, !tbaa !17
  store i8 %8, ptr %6, align 8, !tbaa !17
  %9 = getelementptr inbounds nuw i8, ptr %0, i64 36
  %10 = getelementptr inbounds nuw i8, ptr %1, i64 36
  %11 = load i32, ptr %10, align 4, !tbaa !18
  store i32 %11, ptr %9, align 4, !tbaa !18
  %12 = getelementptr inbounds nuw i8, ptr %0, i64 40
  tail call void @llvm.memset.p0.i64(ptr noundef nonnull align 8 dereferenceable(16) %12, i8 0, i64 16, i1 false)
  ret void
}